target datalayout = "e-m:e-p270:32:32-p271:32:32-p272:64:64-i64:64-i128:128-f80:128-n8:16:32:64-S128"
target triple = "x86_64-pc-linux-gnu"

%struct.archive_read = type { %struct.archive, ptr, i32, i64, i64, %struct.archive_read_client, [16 x %struct.archive_read_filter_bidder], ptr, i32, i64, i32, i32, [16 x %struct.archive_format_descriptor], ptr, ptr, ptr, %struct.anon }
%struct.archive = type { i32, i32, ptr, i32, ptr, i32, i32, ptr, %struct.archive_string, ptr, i32, i32, ptr, ptr, i64, i64, i64, i8, i64 }
%struct.archive_string = type { ptr, i64, i64 }
%struct.archive_read_client = type { ptr, ptr, ptr, ptr, ptr, ptr, i32, i32, i64, ptr }
%struct.archive_read_filter_bidder = type { ptr, ptr, ptr }
%struct.archive_format_descriptor = type { ptr, ptr, ptr, ptr, ptr, ptr, ptr, ptr, ptr, ptr, ptr }
%struct.anon = type { ptr, ptr, i32, ptr, ptr }
%struct.archive_read_data_node = type { i64, i64, ptr }

@.str.1 = private unnamed_addr constant [31 x i8] c"archive_read_set_open_callback\00", align 1
@.str.2 = private unnamed_addr constant [31 x i8] c"archive_read_set_read_callback\00", align 1
@.str.3 = private unnamed_addr constant [31 x i8] c"archive_read_set_skip_callback\00", align 1
@.str.5 = private unnamed_addr constant [32 x i8] c"archive_read_set_close_callback\00", align 1
@.str.7 = private unnamed_addr constant [32 x i8] c"archive_read_set_callback_data2\00", align 1
@.str.8 = private unnamed_addr constant [11 x i8] c"No memory.\00", align 1
@.str.9 = private unnamed_addr constant [25 x i8] c"Invalid index specified.\00", align 1

; Function Attrs: nounwind uwtable
define dso_local i32 @archive_read_set_callback_data2(ptr noundef %0, ptr noundef %1, i32 noundef %2) #0 {
  %4 = alloca i32, align 4
  %5 = alloca ptr, align 8
  %6 = alloca ptr, align 8
  %7 = alloca i32, align 4
  %8 = alloca ptr, align 8
  %9 = alloca i32, align 4
  %10 = alloca i32, align 4
  store ptr %0, ptr %5, align 8, !tbaa !31
  store ptr %1, ptr %6, align 8, !tbaa !37
  store i32 %2, ptr %7, align 4, !tbaa !38
  call void @llvm.lifetime.start.p0(i64 8, ptr %8) #11
  %11 = load ptr, ptr %5, align 8, !tbaa !31
  store ptr %11, ptr %8, align 8, !tbaa !4
  br label %12

12:                                               ; preds = %3
  call void @llvm.lifetime.start.p0(i64 4, ptr %9) #11
  %13 = load ptr, ptr %5, align 8, !tbaa !31
  %14 = call i32 @__archive_check_magic(ptr noundef %13, i32 noundef 14594245, i32 noundef 1, ptr noundef @.str.7)
  store i32 %14, ptr %9, align 4, !tbaa !38
  %15 = load i32, ptr %9, align 4, !tbaa !38
  %16 = icmp eq i32 %15, -30
  br i1 %16, label %17, label %18

17:                                               ; preds = %12
  store i32 -30, ptr %4, align 4
  store i32 1, ptr %10, align 4
  br label %19

18:                                               ; preds = %12
  store i32 0, ptr %10, align 4
  br label %19

19:                                               ; preds = %18, %17
  call void @llvm.lifetime.end.p0(i64 4, ptr %9) #11
  %20 = load i32, ptr %10, align 4
  switch i32 %20, label %83 [
    i32 0, label %21
  ]

21:                                               ; preds = %19
  br label %22

22:                                               ; preds = %21
  br label %23

23:                                               ; preds = %22
  %24 = load ptr, ptr %8, align 8, !tbaa !4
  %25 = getelementptr inbounds nuw %struct.archive_read, ptr %24, i32 0, i32 5
  %26 = getelementptr inbounds nuw %struct.archive_read_client, ptr %25, i32 0, i32 6
  %27 = load i32, ptr %26, align 8, !tbaa !67
  %28 = icmp eq i32 %27, 0
  br i1 %28, label %29, label %46

29:                                               ; preds = %23
  %30 = call noalias ptr @calloc(i64 noundef 1, i64 noundef 24) #12
  %31 = load ptr, ptr %8, align 8, !tbaa !4
  %32 = getelementptr inbounds nuw %struct.archive_read, ptr %31, i32 0, i32 5
  %33 = getelementptr inbounds nuw %struct.archive_read_client, ptr %32, i32 0, i32 9
  store ptr %30, ptr %33, align 8, !tbaa !42
  %34 = load ptr, ptr %8, align 8, !tbaa !4
  %35 = getelementptr inbounds nuw %struct.archive_read, ptr %34, i32 0, i32 5
  %36 = getelementptr inbounds nuw %struct.archive_read_client, ptr %35, i32 0, i32 9
  %37 = load ptr, ptr %36, align 8, !tbaa !42
  %38 = icmp eq ptr %37, null
  br i1 %38, label %39, label %42

39:                                               ; preds = %29
  %40 = load ptr, ptr %8, align 8, !tbaa !4
  %41 = getelementptr inbounds nuw %struct.archive_read, ptr %40, i32 0, i32 0
  call void (ptr, i32, ptr, ...) @archive_set_error(ptr noundef %41, i32 noundef 12, ptr noundef @.str.8)
  store i32 -30, ptr %4, align 4
  store i32 1, ptr %10, align 4
  br label %83

42:                                               ; preds = %29
  %43 = load ptr, ptr %8, align 8, !tbaa !4
  %44 = getelementptr inbounds nuw %struct.archive_read, ptr %43, i32 0, i32 5
  %45 = getelementptr inbounds nuw %struct.archive_read_client, ptr %44, i32 0, i32 6
  store i32 1, ptr %45, align 8, !tbaa !67
  br label %46

46:                                               ; preds = %42, %23
  %47 = load i32, ptr %7, align 4, !tbaa !38
  %48 = load ptr, ptr %8, align 8, !tbaa !4
  %49 = getelementptr inbounds nuw %struct.archive_read, ptr %48, i32 0, i32 5
  %50 = getelementptr inbounds nuw %struct.archive_read_client, ptr %49, i32 0, i32 6
  %51 = load i32, ptr %50, align 8, !tbaa !67
  %52 = sub i32 %51, 1
  %53 = icmp ugt i32 %47, %52
  br i1 %53, label %54, label %57

54:                                               ; preds = %46
  %55 = load ptr, ptr %8, align 8, !tbaa !4
  %56 = getelementptr inbounds nuw %struct.archive_read, ptr %55, i32 0, i32 0
  call void (ptr, i32, ptr, ...) @archive_set_error(ptr noundef %56, i32 noundef 22, ptr noundef @.str.9)
  store i32 -30, ptr %4, align 4
  store i32 1, ptr %10, align 4
  br label %83

57:                                               ; preds = %46
  %58 = load ptr, ptr %6, align 8, !tbaa !37
  %59 = load ptr, ptr %8, align 8, !tbaa !4
  %60 = getelementptr inbounds nuw %struct.archive_read, ptr %59, i32 0, i32 5
  %61 = getelementptr inbounds nuw %struct.archive_read_client, ptr %60, i32 0, i32 9
  %62 = load ptr, ptr %61, align 8, !tbaa !42
  %63 = load i32, ptr %7, align 4, !tbaa !38
  %64 = zext i32 %63 to i64
  %65 = getelementptr inbounds nuw %struct.archive_read_data_node, ptr %62, i64 %64
  %66 = getelementptr inbounds nuw %struct.archive_read_data_node, ptr %65, i32 0, i32 2
  store ptr %58, ptr %66, align 8, !tbaa !43
  %67 = load ptr, ptr %8, align 8, !tbaa !4
  %68 = getelementptr inbounds nuw %struct.archive_read, ptr %67, i32 0, i32 5
  %69 = getelementptr inbounds nuw %struct.archive_read_client, ptr %68, i32 0, i32 9
  %70 = load ptr, ptr %69, align 8, !tbaa !42
  %71 = load i32, ptr %7, align 4, !tbaa !38
  %72 = zext i32 %71 to i64
  %73 = getelementptr inbounds nuw %struct.archive_read_data_node, ptr %70, i64 %72
  %74 = getelementptr inbounds nuw %struct.archive_read_data_node, ptr %73, i32 0, i32 0
  store i64 -1, ptr %74, align 8, !tbaa !58
  %75 = load ptr, ptr %8, align 8, !tbaa !4
  %76 = getelementptr inbounds nuw %struct.archive_read, ptr %75, i32 0, i32 5
  %77 = getelementptr inbounds nuw %struct.archive_read_client, ptr %76, i32 0, i32 9
  %78 = load ptr, ptr %77, align 8, !tbaa !42
  %79 = load i32, ptr %7, align 4, !tbaa !38
  %80 = zext i32 %79 to i64
  %81 = getelementptr inbounds nuw %struct.archive_read_data_node, ptr %78, i64 %80
  %82 = getelementptr inbounds nuw %struct.archive_read_data_node, ptr %81, i32 0, i32 1
  store i64 -1, ptr %82, align 8, !tbaa !68
  store i32 0, ptr %4, align 4
  store i32 1, ptr %10, align 4
  br label %83

83:                                               ; preds = %57, %54, %39, %19
  call void @llvm.lifetime.end.p0(i64 8, ptr %8) #11
  %84 = load i32, ptr %4, align 4
  ret i32 %84
}

; Function Attrs: nounwind uwtable
define dso_local i32 @archive_read_set_close_callback(ptr noundef %0, ptr noundef %1) #0 {
  %3 = alloca i32, align 4
  %4 = alloca ptr, align 8
  %5 = alloca ptr, align 8
  %6 = alloca ptr, align 8
  %7 = alloca i32, align 4
  %8 = alloca i32, align 4
  store ptr %0, ptr %4, align 8, !tbaa !31
  store ptr %1, ptr %5, align 8, !tbaa !37
  call void @llvm.lifetime.start.p0(i64 8, ptr %6) #11
  %9 = load ptr, ptr %4, align 8, !tbaa !31
  store ptr %9, ptr %6, align 8, !tbaa !4
  br label %10

10:                                               ; preds = %2
  call void @llvm.lifetime.start.p0(i64 4, ptr %7) #11
  %11 = load ptr, ptr %4, align 8, !tbaa !31
  %12 = call i32 @__archive_check_magic(ptr noundef %11, i32 noundef 14594245, i32 noundef 1, ptr noundef @.str.5)
  store i32 %12, ptr %7, align 4, !tbaa !38
  %13 = load i32, ptr %7, align 4, !tbaa !38
  %14 = icmp eq i32 %13, -30
  br i1 %14, label %15, label %16

15:                                               ; preds = %10
  store i32 -30, ptr %3, align 4
  store i32 1, ptr %8, align 4
  br label %17

16:                                               ; preds = %10
  store i32 0, ptr %8, align 4
  br label %17

17:                                               ; preds = %16, %15
  call void @llvm.lifetime.end.p0(i64 4, ptr %7) #11
  %18 = load i32, ptr %8, align 4
  switch i32 %18, label %26 [
    i32 0, label %19
  ]

19:                                               ; preds = %17
  br label %20

20:                                               ; preds = %19
  br label %21

21:                                               ; preds = %20
  %22 = load ptr, ptr %5, align 8, !tbaa !37
  %23 = load ptr, ptr %6, align 8, !tbaa !4
  %24 = getelementptr inbounds nuw %struct.archive_read, ptr %23, i32 0, i32 5
  %25 = getelementptr inbounds nuw %struct.archive_read_client, ptr %24, i32 0, i32 4
  store ptr %22, ptr %25, align 8, !tbaa !41
  store i32 0, ptr %3, align 4
  store i32 1, ptr %8, align 4
  br label %26

26:                                               ; preds = %21, %17
  call void @llvm.lifetime.end.p0(i64 8, ptr %6) #11
  %27 = load i32, ptr %3, align 4
  ret i32 %27
}

; Function Attrs: nounwind uwtable
define dso_local i32 @archive_read_set_skip_callback(ptr noundef %0, ptr noundef %1) #0 {
  %3 = alloca i32, align 4
  %4 = alloca ptr, align 8
  %5 = alloca ptr, align 8
  %6 = alloca ptr, align 8
  %7 = alloca i32, align 4
  %8 = alloca i32, align 4
  store ptr %0, ptr %4, align 8, !tbaa !31
  store ptr %1, ptr %5, align 8, !tbaa !37
  call void @llvm.lifetime.start.p0(i64 8, ptr %6) #11
  %9 = load ptr, ptr %4, align 8, !tbaa !31
  store ptr %9, ptr %6, align 8, !tbaa !4
  br label %10

10:                                               ; preds = %2
  call void @llvm.lifetime.start.p0(i64 4, ptr %7) #11
  %11 = load ptr, ptr %4, align 8, !tbaa !31
  %12 = call i32 @__archive_check_magic(ptr noundef %11, i32 noundef 14594245, i32 noundef 1, ptr noundef @.str.3)
  store i32 %12, ptr %7, align 4, !tbaa !38
  %13 = load i32, ptr %7, align 4, !tbaa !38
  %14 = icmp eq i32 %13, -30
  br i1 %14, label %15, label %16

15:                                               ; preds = %10
  store i32 -30, ptr %3, align 4
  store i32 1, ptr %8, align 4
  br label %17

16:                                               ; preds = %10
  store i32 0, ptr %8, align 4
  br label %17

17:                                               ; preds = %16, %15
  call void @llvm.lifetime.end.p0(i64 4, ptr %7) #11
  %18 = load i32, ptr %8, align 4
  switch i32 %18, label %26 [
    i32 0, label %19
  ]

19:                                               ; preds = %17
  br label %20

20:                                               ; preds = %19
  br label %21

21:                                               ; preds = %20
  %22 = load ptr, ptr %5, align 8, !tbaa !37
  %23 = load ptr, ptr %6, align 8, !tbaa !4
  %24 = getelementptr inbounds nuw %struct.archive_read, ptr %23, i32 0, i32 5
  %25 = getelementptr inbounds nuw %struct.archive_read_client, ptr %24, i32 0, i32 2
  store ptr %22, ptr %25, align 8, !tbaa !64
  store i32 0, ptr %3, align 4
  store i32 1, ptr %8, align 4
  br label %26

26:                                               ; preds = %21, %17
  call void @llvm.lifetime.end.p0(i64 8, ptr %6) #11
  %27 = load i32, ptr %3, align 4
  ret i32 %27
}

; Function Attrs: nounwind uwtable
define dso_local i32 @archive_read_set_read_callback(ptr noundef %0, ptr noundef %1) #0 {
  %3 = alloca i32, align 4
  %4 = alloca ptr, align 8
  %5 = alloca ptr, align 8
  %6 = alloca ptr, align 8
  %7 = alloca i32, align 4
  %8 = alloca i32, align 4
  store ptr %0, ptr %4, align 8, !tbaa !31
  store ptr %1, ptr %5, align 8, !tbaa !37
  call void @llvm.lifetime.start.p0(i64 8, ptr %6) #11
  %9 = load ptr, ptr %4, align 8, !tbaa !31
  store ptr %9, ptr %6, align 8, !tbaa !4
  br label %10

10:                                               ; preds = %2
  call void @llvm.lifetime.start.p0(i64 4, ptr %7) #11
  %11 = load ptr, ptr %4, align 8, !tbaa !31
  %12 = call i32 @__archive_check_magic(ptr noundef %11, i32 noundef 14594245, i32 noundef 1, ptr noundef @.str.2)
  store i32 %12, ptr %7, align 4, !tbaa !38
  %13 = load i32, ptr %7, align 4, !tbaa !38
  %14 = icmp eq i32 %13, -30
  br i1 %14, label %15, label %16

15:                                               ; preds = %10
  store i32 -30, ptr %3, align 4
  store i32 1, ptr %8, align 4
  br label %17

16:                                               ; preds = %10
  store i32 0, ptr %8, align 4
  br label %17

17:                                               ; preds = %16, %15
  call void @llvm.lifetime.end.p0(i64 4, ptr %7) #11
  %18 = load i32, ptr %8, align 4
  switch i32 %18, label %26 [
    i32 0, label %19
  ]

19:                                               ; preds = %17
  br label %20

20:                                               ; preds = %19
  br label %21

21:                                               ; preds = %20
  %22 = load ptr, ptr %5, align 8, !tbaa !37
  %23 = load ptr, ptr %6, align 8, !tbaa !4
  %24 = getelementptr inbounds nuw %struct.archive_read, ptr %23, i32 0, i32 5
  %25 = getelementptr inbounds nuw %struct.archive_read_client, ptr %24, i32 0, i32 1
  store ptr %22, ptr %25, align 8, !tbaa !40
  store i32 0, ptr %3, align 4
  store i32 1, ptr %8, align 4
  br label %26

26:                                               ; preds = %21, %17
  call void @llvm.lifetime.end.p0(i64 8, ptr %6) #11
  %27 = load i32, ptr %3, align 4
  ret i32 %27
}

; Function Attrs: nounwind uwtable
define dso_local i32 @archive_read_set_open_callback(ptr noundef %0, ptr noundef %1) #0 {
  %3 = alloca i32, align 4
  %4 = alloca ptr, align 8
  %5 = alloca ptr, align 8
  %6 = alloca ptr, align 8
  %7 = alloca i32, align 4
  %8 = alloca i32, align 4
  store ptr %0, ptr %4, align 8, !tbaa !31
  store ptr %1, ptr %5, align 8, !tbaa !37
  call void @llvm.lifetime.start.p0(i64 8, ptr %6) #11
  %9 = load ptr, ptr %4, align 8, !tbaa !31
  store ptr %9, ptr %6, align 8, !tbaa !4
  br label %10

10:                                               ; preds = %2
  call void @llvm.lifetime.start.p0(i64 4, ptr %7) #11
  %11 = load ptr, ptr %4, align 8, !tbaa !31
  %12 = call i32 @__archive_check_magic(ptr noundef %11, i32 noundef 14594245, i32 noundef 1, ptr noundef @.str.1)
  store i32 %12, ptr %7, align 4, !tbaa !38
  %13 = load i32, ptr %7, align 4, !tbaa !38
  %14 = icmp eq i32 %13, -30
  br i1 %14, label %15, label %16

15:                                               ; preds = %10
  store i32 -30, ptr %3, align 4
  store i32 1, ptr %8, align 4
  br label %17

16:                                               ; preds = %10
  store i32 0, ptr %8, align 4
  br label %17

17:                                               ; preds = %16, %15
  call void @llvm.lifetime.end.p0(i64 4, ptr %7) #11
  %18 = load i32, ptr %8, align 4
  switch i32 %18, label %26 [
    i32 0, label %19
  ]

19:                                               ; preds = %17
  br label %20

20:                                               ; preds = %19
  br label %21

21:                                               ; preds = %20
  %22 = load ptr, ptr %5, align 8, !tbaa !37
  %23 = load ptr, ptr %6, align 8, !tbaa !4
  %24 = getelementptr inbounds nuw %struct.archive_read, ptr %23, i32 0, i32 5
  %25 = getelementptr inbounds nuw %struct.archive_read_client, ptr %24, i32 0, i32 0
  store ptr %22, ptr %25, align 8, !tbaa !39
  store i32 0, ptr %3, align 4
  store i32 1, ptr %8, align 4
  br label %26

26:                                               ; preds = %21, %17
  call void @llvm.lifetime.end.p0(i64 8, ptr %6) #11
  %27 = load i32, ptr %3, align 4
  ret i32 %27
}

; Function Attrs: nounwind uwtable
define dso_local i32 @archive_read_set_callback_data(ptr noundef %0, ptr noundef %1) #0 {
  %3 = alloca ptr, align 8
  %4 = alloca ptr, align 8
  store ptr %0, ptr %3, align 8, !tbaa !31
  store ptr %1, ptr %4, align 8, !tbaa !37
  %5 = load ptr, ptr %3, align 8, !tbaa !31
  %6 = load ptr, ptr %4, align 8, !tbaa !37
  %7 = call i32 @archive_read_set_callback_data2(ptr noundef %5, ptr noundef %6, i32 noundef 0)
  ret i32 %7
}

; Function Attrs: nounwind uwtable
define dso_local i32 @archive_read_open2(ptr noundef %0, ptr noundef %1, ptr noundef %2, ptr noundef %3, ptr noundef %4, ptr noundef %5) #0 {
  %7 = alloca ptr, align 8
  %8 = alloca ptr, align 8
  %9 = alloca ptr, align 8
  %10 = alloca ptr, align 8
  %11 = alloca ptr, align 8
  %12 = alloca ptr, align 8
  store ptr %0, ptr %7, align 8, !tbaa !31
  store ptr %1, ptr %8, align 8, !tbaa !37
  store ptr %2, ptr %9, align 8, !tbaa !37
  store ptr %3, ptr %10, align 8, !tbaa !37
  store ptr %4, ptr %11, align 8, !tbaa !37
  store ptr %5, ptr %12, align 8, !tbaa !37
  %13 = load ptr, ptr %7, align 8, !tbaa !31
  %14 = load ptr, ptr %8, align 8, !tbaa !37
  %15 = call i32 @archive_read_set_callback_data(ptr noundef %13, ptr noundef %14)
  %16 = load ptr, ptr %7, align 8, !tbaa !31
  %17 = load ptr, ptr %9, align 8, !tbaa !37
  %18 = call i32 @archive_read_set_open_callback(ptr noundef %16, ptr noundef %17)
  %19 = load ptr, ptr %7, align 8, !tbaa !31
  %20 = load ptr, ptr %10, align 8, !tbaa !37
  %21 = call i32 @archive_read_set_read_callback(ptr noundef %19, ptr noundef %20)
  %22 = load ptr, ptr %7, align 8, !tbaa !31
  %23 = load ptr, ptr %11, align 8, !tbaa !37
  %24 = call i32 @archive_read_set_skip_callback(ptr noundef %22, ptr noundef %23)
  %25 = load ptr, ptr %7, align 8, !tbaa !31
  %26 = load ptr, ptr %12, align 8, !tbaa !37
  %27 = call i32 @archive_read_set_close_callback(ptr noundef %25, ptr noundef %26)
  %28 = load ptr, ptr %7, align 8, !tbaa !31
  %29 = call i32 @archive_read_open1(ptr noundef %28)
  ret i32 %29
}