; Function Attrs: nounwind uwtable
define dso_local i32 @archive_read_open2(ptr noundef %0, ptr noundef %1, ptr noundef %2, ptr noundef %3, ptr noundef %4, ptr noundef %5) local_unnamed_addr #0 {
  %7 = tail call i32 @__archive_check_magic(ptr noundef %0, i32 noundef 14594245, i32 noundef 1, ptr noundef nonnull @.str.7) #15
  %.not.i.i = icmp eq i32 %7, -30
  br i1 %.not.i.i, label %archive_read_set_callback_data.exit, label %8

8:                                                ; preds = %6
  %9 = getelementptr inbounds nuw i8, ptr %0, i64 224
  %10 = load i32, ptr %9, align 8, !tbaa !35
  %11 = icmp eq i32 %10, 0
  br i1 %11, label %12, label %._crit_edge.i

._crit_edge.i:                                    ; preds = %8
  %.phi.trans.insert.i = getelementptr inbounds nuw i8, ptr %0, i64 240
  %.pre.i = load ptr, ptr %.phi.trans.insert.i, align 8, !tbaa !36
  br label %18

12:                                               ; preds = %8
  %13 = tail call noalias dereferenceable_or_null(24) ptr @calloc(i64 noundef 1, i64 noundef 24) #14
  %14 = getelementptr inbounds nuw i8, ptr %0, i64 240
  store ptr %13, ptr %14, align 8, !tbaa !36
  %15 = icmp eq ptr %13, null
  br i1 %15, label %16, label %17

16:                                               ; preds = %12
  tail call void (ptr, i32, ptr, ...) @archive_set_error(ptr noundef nonnull %0, i32 noundef 12, ptr noundef nonnull @.str.8) #15
  br label %archive_read_set_callback_data.exit

17:                                               ; preds = %12
  store i32 1, ptr %9, align 8, !tbaa !35
  br label %18

18:                                               ; preds = %17, %._crit_edge.i
  %19 = phi ptr [ %.pre.i, %._crit_edge.i ], [ %13, %17 ]
  %20 = getelementptr inbounds nuw i8, ptr %19, i64 16
  store ptr %1, ptr %20, align 8, !tbaa !37
  tail call void @llvm.memset.p0.i64(ptr noundef nonnull align 8 dereferenceable(16) %19, i8 -1, i64 16, i1 false)
  br label %archive_read_set_callback_data.exit

archive_read_set_callback_data.exit:              ; preds = %6, %16, %18
  %21 = tail call i32 @__archive_check_magic(ptr noundef %0, i32 noundef 14594245, i32 noundef 1, ptr noundef nonnull @.str.1) #15
  %.not.i = icmp eq i32 %21, -30
  br i1 %.not.i, label %archive_read_set_open_callback.exit, label %22

22:                                               ; preds = %archive_read_set_callback_data.exit
  %23 = getelementptr inbounds nuw i8, ptr %0, i64 176
  store ptr %2, ptr %23, align 8, !tbaa !32
  br label %archive_read_set_open_callback.exit

archive_read_set_open_callback.exit:              ; preds = %archive_read_set_callback_data.exit, %22
  %24 = tail call i32 @__archive_check_magic(ptr noundef %0, i32 noundef 14594245, i32 noundef 1, ptr noundef nonnull @.str.2) #15
  %.not.i11 = icmp eq i32 %24, -30
  br i1 %.not.i11, label %archive_read_set_read_callback.exit, label %25

25:                                               ; preds = %archive_read_set_open_callback.exit
  %26 = getelementptr inbounds nuw i8, ptr %0, i64 184
  store ptr %3, ptr %26, align 8, !tbaa !33
  br label %archive_read_set_read_callback.exit

archive_read_set_read_callback.exit:              ; preds = %archive_read_set_open_callback.exit, %25
  %27 = tail call i32 @__archive_check_magic(ptr noundef %0, i32 noundef 14594245, i32 noundef 1, ptr noundef nonnull @.str.3) #15
  %.not.i13 = icmp eq i32 %27, -30
  br i1 %.not.i13, label %archive_read_set_skip_callback.exit, label %28

28:                                               ; preds = %archive_read_set_read_callback.exit
  %29 = getelementptr inbounds nuw i8, ptr %0, i64 192
  store ptr %4, ptr %29, align 8, !tbaa !80
  br label %archive_read_set_skip_callback.exit

archive_read_set_skip_callback.exit:              ; preds = %archive_read_set_read_callback.exit, %28
  %30 = tail call i32 @__archive_check_magic(ptr noundef %0, i32 noundef 14594245, i32 noundef 1, ptr noundef nonnull @.str.5) #15
  %.not.i15 = icmp eq i32 %30, -30
  br i1 %.not.i15, label %archive_read_set_close_callback.exit, label %31

31:                                               ; preds = %archive_read_set_skip_callback.exit
  %32 = getelementptr inbounds nuw i8, ptr %0, i64 208
  store ptr %5, ptr %32, align 8, !tbaa !34
  br label %archive_read_set_close_callback.exit

archive_read_set_close_callback.exit:             ; preds = %archive_read_set_skip_callback.exit, %31
  %33 = tail call i32 @archive_read_open1(ptr noundef %0)
  ret i32 %33
}